target datalayout = "e-m:e-p270:32:32-p271:32:32-p272:64:64-i64:64-i128:128-f80:128-n8:16:32:64-S128"
target triple = "x86_64-pc-linux-gnu"

%struct.tls_buffer_st = type { ptr, i64, i64, i64, i64, i32, i32 }
%struct.tls_rl_record_st = type { i32, i32, i64, i64, i64, ptr, ptr, ptr, i16, [8 x i8] }
%struct.ossl_record_layer_st = type { ptr, ptr, i32, i32, i32, i32, i32, ptr, i16, ptr, ptr, ptr, i64, i32, [33 x %struct.tls_buffer_st], i64, i64, %struct.tls_buffer_st, [32 x %struct.tls_rl_record_st], i64, i64, i64, i32, ptr, i64, [8 x i8], i32, i32, i64, i32, ptr, ptr, i64, ptr, ptr, i32, i32, i32, i64, i64, i64, [64 x i8], i32, i32, i32, ptr, ptr, i32, i32, i64, ptr, ptr, %struct.dtls_bitmap_st, %struct.dtls_bitmap_st, i32, ptr, ptr, ptr, ptr, ptr, i64, ptr }
%struct.dtls_bitmap_st = type { i64, [8 x i8] }

; Function Attrs: nounwind uwtable
define i32 @tls_alloc_buffers(ptr noundef %0) #0 {
  %2 = alloca i32, align 4
  %3 = alloca ptr, align 8
  store ptr %0, ptr %3, align 8, !tbaa !16
  %4 = load ptr, ptr %3, align 8, !tbaa !16
  %5 = getelementptr inbounds nuw %struct.ossl_record_layer_st, ptr %4, i32 0, i32 5
  %6 = load i32, ptr %5, align 4, !tbaa !128
  %7 = icmp eq i32 %6, 1
  br i1 %7, label %8, label %27

8:                                                ; preds = %1
  %9 = load ptr, ptr %3, align 8, !tbaa !16
  %10 = getelementptr inbounds nuw %struct.ossl_record_layer_st, ptr %9, i32 0, i32 15
  %11 = load i64, ptr %10, align 8, !tbaa !176
  %12 = load ptr, ptr %3, align 8, !tbaa !16
  %13 = getelementptr inbounds nuw %struct.ossl_record_layer_st, ptr %12, i32 0, i32 16
  %14 = load i64, ptr %13, align 8, !tbaa !49
  %15 = icmp ult i64 %11, %14
  br i1 %15, label %16, label %17

16:                                               ; preds = %8
  store i32 1, ptr %2, align 4
  br label %45

17:                                               ; preds = %8
  %18 = load ptr, ptr %3, align 8, !tbaa !16
  %19 = call i32 @tls_setup_write_buffer(ptr noundef %18, i64 noundef 1, i64 noundef 0, i64 noundef 0)
  %20 = icmp ne i32 %19, 0
  br i1 %20, label %22, label %21

21:                                               ; preds = %17
  store i32 0, ptr %2, align 4
  br label %45

22:                                               ; preds = %17
  %23 = load ptr, ptr %3, align 8, !tbaa !16
  %24 = getelementptr inbounds nuw %struct.ossl_record_layer_st, ptr %23, i32 0, i32 14
  %25 = getelementptr inbounds [33 x %struct.tls_buffer_st], ptr %24, i64 0, i64 0
  %26 = getelementptr inbounds nuw %struct.tls_buffer_st, ptr %25, i32 0, i32 4
  store i64 0, ptr %26, align 8, !tbaa !60
  store i32 1, ptr %2, align 4
  br label %45

27:                                               ; preds = %1
  %28 = load ptr, ptr %3, align 8, !tbaa !16
  %29 = getelementptr inbounds nuw %struct.ossl_record_layer_st, ptr %28, i32 0, i32 20
  %30 = load i64, ptr %29, align 8, !tbaa !94
  %31 = load ptr, ptr %3, align 8, !tbaa !16
  %32 = getelementptr inbounds nuw %struct.ossl_record_layer_st, ptr %31, i32 0, i32 19
  %33 = load i64, ptr %32, align 8, !tbaa !93
  %34 = icmp ult i64 %30, %33
  br i1 %34, label %41, label %35

35:                                               ; preds = %27
  %36 = load ptr, ptr %3, align 8, !tbaa !16
  %37 = getelementptr inbounds nuw %struct.ossl_record_layer_st, ptr %36, i32 0, i32 17
  %38 = getelementptr inbounds nuw %struct.tls_buffer_st, ptr %37, i32 0, i32 4
  %39 = load i64, ptr %38, align 8, !tbaa !127
  %40 = icmp ne i64 %39, 0
  br i1 %40, label %41, label %42

41:                                               ; preds = %35, %27
  store i32 1, ptr %2, align 4
  br label %45

42:                                               ; preds = %35
  %43 = load ptr, ptr %3, align 8, !tbaa !16
  %44 = call i32 @tls_setup_read_buffer(ptr noundef %43)
  store i32 %44, ptr %2, align 4
  br label %45

45:                                               ; preds = %42, %41, %22, %21, %16
  %46 = load i32, ptr %2, align 4
  ret i32 %46
}