; Function Attrs: nounwind uwtable
define range(i32 0, 2) i32 @tls_alloc_buffers(ptr noundef captures(none) %0) #0 {
  %2 = getelementptr inbounds nuw i8, ptr %0, i64 28
  %3 = load i32, ptr %2, align 4, !tbaa !103
  %4 = icmp eq i32 %3, 1
  br i1 %4, label %5, label %15

5:                                                ; preds = %1
  %6 = getelementptr inbounds nuw i8, ptr %0, i64 1680
  %7 = load i64, ptr %6, align 8, !tbaa !144
  %8 = getelementptr inbounds nuw i8, ptr %0, i64 1688
  %9 = load i64, ptr %8, align 8, !tbaa !38
  %10 = icmp ult i64 %7, %9
  br i1 %10, label %26, label %11

11:                                               ; preds = %5
  %12 = tail call i32 @tls_setup_write_buffer(ptr noundef nonnull %0, i64 noundef 1, i64 noundef 0, i64 noundef 0)
  %.not9 = icmp eq i32 %12, 0
  br i1 %.not9, label %26, label %13

13:                                               ; preds = %11
  %14 = getelementptr inbounds nuw i8, ptr %0, i64 128
  store i64 0, ptr %14, align 8, !tbaa !45
  br label %26

15:                                               ; preds = %1
  %16 = getelementptr inbounds nuw i8, ptr %0, i64 4056
  %17 = load i64, ptr %16, align 8, !tbaa !95
  %18 = getelementptr inbounds nuw i8, ptr %0, i64 4048
  %19 = load i64, ptr %18, align 8, !tbaa !88
  %20 = icmp ult i64 %17, %19
  br i1 %20, label %26, label %21

21:                                               ; preds = %15
  %22 = getelementptr inbounds nuw i8, ptr %0, i64 1728
  %23 = load i64, ptr %22, align 8, !tbaa !102
  %.not = icmp eq i64 %23, 0
  br i1 %.not, label %24, label %26

24:                                               ; preds = %21
  %25 = tail call i32 @tls_setup_read_buffer(ptr noundef nonnull %0)
  br label %26

26:                                               ; preds = %15, %21, %11, %5, %24, %13
  %.0 = phi i32 [ 1, %13 ], [ %25, %24 ], [ 1, %5 ], [ 0, %11 ], [ 1, %21 ], [ 1, %15 ]
  ret i32 %.0
}